target datalayout = "e-m:e-p270:32:32-p271:32:32-p272:64:64-i64:64-i128:128-f80:128-n8:16:32:64-S128"
target triple = "x86_64-pc-linux-gnu"

%struct.cbuf = type { %union.pthread_mutex_t, i32, i32, i32, i32, i32, i32, i32, i32, i32, i32, ptr }
%union.pthread_mutex_t = type { %struct.__pthread_mutex_s }
%struct.__pthread_mutex_s = type { i32, i32, i32, i32, i32, i16, i16, %struct.__pthread_internal_list }
%struct.__pthread_internal_list = type { ptr, ptr }

@.str.2 = private unnamed_addr constant [29 x i8] c"%s: pthread_mutex_lock(): %m\00", align 1
@.str.3 = private unnamed_addr constant [31 x i8] c"%s: pthread_mutex_unlock(): %m\00", align 1
@__func__.cbuf_write_from_fd = private unnamed_addr constant [19 x i8] c"cbuf_write_from_fd\00", align 1

; Function Attrs: nounwind uwtable
define dso_local i32 @cbuf_write_from_fd(ptr noundef %0, i32 noundef %1, i32 noundef %2, ptr noundef %3) #0 {
  %5 = alloca i32, align 4
  %6 = alloca ptr, align 8
  %7 = alloca i32, align 4
  %8 = alloca i32, align 4
  %9 = alloca ptr, align 8
  %10 = alloca i32, align 4
  %11 = alloca i32, align 4
  %12 = alloca i32, align 4
  %13 = alloca i32, align 4
  store ptr %0, ptr %6, align 8
  store i32 %1, ptr %7, align 4
  store i32 %2, ptr %8, align 4
  store ptr %3, ptr %9, align 8
  call void @llvm.lifetime.start.p0(i64 4, ptr %10) #8
  store i32 0, ptr %10, align 4
  %14 = load ptr, ptr %9, align 8
  %15 = icmp ne ptr %14, null
  br i1 %15, label %16, label %18

16:                                               ; preds = %4
  %17 = load ptr, ptr %9, align 8
  store i32 0, ptr %17, align 4
  br label %18

18:                                               ; preds = %16, %4
  %19 = load i32, ptr %7, align 4
  %20 = icmp slt i32 %19, 0
  br i1 %20, label %24, label %21

21:                                               ; preds = %18
  %22 = load i32, ptr %8, align 4
  %23 = icmp slt i32 %22, -1
  br i1 %23, label %24, label %26

24:                                               ; preds = %21, %18
  %25 = call ptr @__errno_location() #9
  store i32 22, ptr %25, align 4
  store i32 -1, ptr %5, align 4
  store i32 1, ptr %11, align 4
  br label %75

26:                                               ; preds = %21
  br label %27

27:                                               ; preds = %26
  call void @llvm.lifetime.start.p0(i64 4, ptr %12) #8
  %28 = load ptr, ptr %6, align 8
  %29 = getelementptr inbounds nuw %struct.cbuf, ptr %28, i32 0, i32 0
  %30 = call i32 @pthread_mutex_lock(ptr noundef %29) #8
  store i32 %30, ptr %12, align 4
  %31 = load i32, ptr %12, align 4
  %32 = icmp ne i32 %31, 0
  br i1 %32, label %33, label %36

33:                                               ; preds = %27
  %34 = load i32, ptr %12, align 4
  %35 = call ptr @__errno_location() #9
  store i32 %34, ptr %35, align 4
  call void (ptr, ...) @fatal_abort(ptr noundef @.str.2, ptr noundef @__func__.cbuf_write_from_fd) #10
  unreachable

36:                                               ; preds = %27
  call void @llvm.lifetime.end.p0(i64 4, ptr %12) #8
  br label %37

37:                                               ; preds = %36
  br label %38

38:                                               ; preds = %37
  %39 = load i32, ptr %8, align 4
  %40 = icmp eq i32 %39, -1
  br i1 %40, label %41, label %53

41:                                               ; preds = %38
  %42 = load ptr, ptr %6, align 8
  %43 = getelementptr inbounds nuw %struct.cbuf, ptr %42, i32 0, i32 4
  %44 = load i32, ptr %43, align 4
  %45 = load ptr, ptr %6, align 8
  %46 = getelementptr inbounds nuw %struct.cbuf, ptr %45, i32 0, i32 5
  %47 = load i32, ptr %46, align 8
  %48 = sub nsw i32 %44, %47
  store i32 %48, ptr %8, align 4
  %49 = load i32, ptr %8, align 4
  %50 = icmp eq i32 %49, 0
  br i1 %50, label %51, label %52

51:                                               ; preds = %41
  store i32 1000, ptr %8, align 4
  br label %52

52:                                               ; preds = %51, %41
  br label %53

53:                                               ; preds = %52, %38
  %54 = load i32, ptr %8, align 4
  %55 = icmp sgt i32 %54, 0
  br i1 %55, label %56, label %61

56:                                               ; preds = %53
  %57 = load ptr, ptr %6, align 8
  %58 = load i32, ptr %8, align 4
  %59 = load ptr, ptr %9, align 8
  %60 = call i32 @cbuf_writer(ptr noundef %57, i32 noundef %58, ptr noundef @cbuf_get_fd, ptr noundef %7, ptr noundef %59)
  store i32 %60, ptr %10, align 4
  br label %61

61:                                               ; preds = %56, %53
  br label %62

62:                                               ; preds = %61
  call void @llvm.lifetime.start.p0(i64 4, ptr %13) #8
  %63 = load ptr, ptr %6, align 8
  %64 = getelementptr inbounds nuw %struct.cbuf, ptr %63, i32 0, i32 0
  %65 = call i32 @pthread_mutex_unlock(ptr noundef %64) #8
  store i32 %65, ptr %13, align 4
  %66 = load i32, ptr %13, align 4
  %67 = icmp ne i32 %66, 0
  br i1 %67, label %68, label %71

68:                                               ; preds = %62
  %69 = load i32, ptr %13, align 4
  %70 = call ptr @__errno_location() #9
  store i32 %69, ptr %70, align 4
  call void (ptr, ...) @fatal_abort(ptr noundef @.str.3, ptr noundef @__func__.cbuf_write_from_fd) #10
  unreachable

71:                                               ; preds = %62
  call void @llvm.lifetime.end.p0(i64 4, ptr %13) #8
  br label %72

72:                                               ; preds = %71
  br label %73

73:                                               ; preds = %72
  %74 = load i32, ptr %10, align 4
  store i32 %74, ptr %5, align 4
  store i32 1, ptr %11, align 4
  br label %75

75:                                               ; preds = %73, %24
  call void @llvm.lifetime.end.p0(i64 4, ptr %10) #8
  %76 = load i32, ptr %5, align 4
  ret i32 %76
}