; Function Attrs: nounwind uwtable
define dso_local i32 @cbuf_write_from_fd(ptr noundef %0, i32 noundef %1, i32 noundef %2, ptr noundef captures(address_is_null) %3) local_unnamed_addr #0 {
  %5 = alloca i32, align 4
  store i32 %1, ptr %5, align 4
  %.not = icmp eq ptr %3, null
  br i1 %.not, label %7, label %6

6:                                                ; preds = %4
  store i32 0, ptr %3, align 4
  br label %7

7:                                                ; preds = %6, %4
  %8 = icmp slt i32 %1, 0
  %9 = icmp slt i32 %2, -1
  %or.cond = or i1 %8, %9
  br i1 %or.cond, label %10, label %12

10:                                               ; preds = %7
  %11 = tail call ptr @__errno_location() #14
  store i32 22, ptr %11, align 4
  br label %32

12:                                               ; preds = %7
  %13 = tail call i32 @pthread_mutex_lock(ptr noundef %0) #15
  %.not25 = icmp eq i32 %13, 0
  br i1 %.not25, label %16, label %14

14:                                               ; preds = %12
  %15 = tail call ptr @__errno_location() #14
  store i32 %13, ptr %15, align 4
  tail call void (ptr, ...) @fatal_abort(ptr noundef nonnull @.str.2, ptr noundef nonnull @__func__.cbuf_write_from_fd) #16
  unreachable

16:                                               ; preds = %12
  %17 = icmp eq i32 %2, -1
  br i1 %17, label %18, label %25

18:                                               ; preds = %16
  %19 = getelementptr inbounds nuw i8, ptr %0, i64 52
  %20 = load i32, ptr %19, align 4
  %21 = getelementptr inbounds nuw i8, ptr %0, i64 56
  %22 = load i32, ptr %21, align 8
  %23 = sub nsw i32 %20, %22
  %24 = icmp eq i32 %20, %22
  br i1 %24, label %.thread, label %25

25:                                               ; preds = %18, %16
  %.019 = phi i32 [ %23, %18 ], [ %2, %16 ]
  %26 = icmp sgt i32 %.019, 0
  br i1 %26, label %.thread, label %28

.thread:                                          ; preds = %18, %25
  %.01928 = phi i32 [ %.019, %25 ], [ 1000, %18 ]
  %27 = call fastcc i32 @cbuf_writer(ptr noundef %0, i32 noundef %.01928, ptr noundef nonnull @cbuf_get_fd, ptr noundef %5, ptr noundef %3)
  br label %28

28:                                               ; preds = %25, %.thread
  %.020 = phi i32 [ %27, %.thread ], [ 0, %25 ]
  %29 = call i32 @pthread_mutex_unlock(ptr noundef %0) #15
  %.not26 = icmp eq i32 %29, 0
  br i1 %.not26, label %32, label %30

30:                                               ; preds = %28
  %31 = tail call ptr @__errno_location() #14
  store i32 %29, ptr %31, align 4
  call void (ptr, ...) @fatal_abort(ptr noundef nonnull @.str.3, ptr noundef nonnull @__func__.cbuf_write_from_fd) #16
  unreachable

32:                                               ; preds = %28, %10
  %.0 = phi i32 [ -1, %10 ], [ %.020, %28 ]
  ret i32 %.0
}